target datalayout = "e-m:e-p270:32:32-p271:32:32-p272:64:64-i64:64-i128:128-f80:128-n8:16:32:64-S128"
target triple = "x86_64-unknown-linux-gnu"

%"struct.facebook::velox::StlAllocator" = type { ptr }
%"struct.facebook::velox::StlAllocator.2" = type { ptr }
%"class.facebook::velox::common::hll::DenseHll" = type { i8, i8, i32, %"class.std::vector", i16, %"class.std::vector.0", %"class.std::vector" }
%"class.std::vector.0" = type { %"struct.std::_Vector_base.1" }
%"struct.std::_Vector_base.1" = type { %"struct.std::_Vector_base<unsigned short, facebook::velox::StlAllocator<unsigned short>>::_Vector_impl" }
%"struct.std::_Vector_base<unsigned short, facebook::velox::StlAllocator<unsigned short>>::_Vector_impl" = type { %"struct.facebook::velox::StlAllocator.2", %"struct.std::_Vector_base<unsigned short, facebook::velox::StlAllocator<unsigned short>>::_Vector_impl_data" }
%"struct.std::_Vector_base<unsigned short, facebook::velox::StlAllocator<unsigned short>>::_Vector_impl_data" = type { ptr, ptr, ptr }
%"class.std::vector" = type { %"struct.std::_Vector_base" }
%"struct.std::_Vector_base" = type { %"struct.std::_Vector_base<signed char, facebook::velox::StlAllocator<signed char>>::_Vector_impl" }
%"struct.std::_Vector_base<signed char, facebook::velox::StlAllocator<signed char>>::_Vector_impl" = type { %"struct.facebook::velox::StlAllocator", %"struct.std::_Vector_base<signed char, facebook::velox::StlAllocator<signed char>>::_Vector_impl_data" }
%"struct.std::_Vector_base<signed char, facebook::velox::StlAllocator<signed char>>::_Vector_impl_data" = type { ptr, ptr, ptr }

; Function Attrs: mustprogress nounwind uwtable
define linkonce_odr noundef nonnull align 1 dereferenceable(1) ptr @_ZNSt6vectorIaN8facebook5velox12StlAllocatorIaEEEixEm(ptr noundef nonnull align 8 dereferenceable(32) %this, i64 noundef %__n) #1 comdat align 2 {
entry:
  %this.addr = alloca ptr, align 8
  %__n.addr = alloca i64, align 8
  store ptr %this, ptr %this.addr, align 8
  store i64 %__n, ptr %__n.addr, align 8
  %this1 = load ptr, ptr %this.addr, align 8
  %_M_impl = getelementptr inbounds %"struct.std::_Vector_base", ptr %this1, i32 0, i32 0
  %add.ptr = getelementptr inbounds i8, ptr %_M_impl, i64 8
  %_M_start = getelementptr inbounds %"struct.std::_Vector_base<signed char, facebook::velox::StlAllocator<signed char>>::_Vector_impl_data", ptr %add.ptr, i32 0, i32 0
  %0 = load ptr, ptr %_M_start, align 8
  %1 = load i64, ptr %__n.addr, align 8
  %add.ptr2 = getelementptr inbounds i8, ptr %0, i64 %1
  ret ptr %add.ptr2
}

; Function Attrs: mustprogress nounwind uwtable
define internal noundef signext i8 @_ZN8facebook5velox6common3hll12_GLOBAL__N_114shiftForBucketEi(i32 noundef %index) #1 {
entry:
  %index.addr = alloca i32, align 4
  store i32 %index, ptr %index.addr, align 4
  %0 = load i32, ptr %index.addr, align 4
  %not = xor i32 %0, -1
  %and = and i32 %not, 1
  %shl = shl i32 %and, 2
  %conv = trunc i32 %shl to i8
  ret i8 %conv
}

; Function Attrs: mustprogress uwtable
define void @_ZN8facebook5velox6common3hll8DenseHll8setDeltaEia(ptr noundef nonnull align 8 dereferenceable(112) %this, i32 noundef %index, i8 noundef signext %value) #0 align 2 {
entry:
  %this.addr = alloca ptr, align 8
  %index.addr = alloca i32, align 4
  %value.addr = alloca i8, align 1
  %slot = alloca i32, align 4
  %clearMask = alloca i8, align 1
  %setMask = alloca i8, align 1
  store ptr %this, ptr %this.addr, align 8
  store i32 %index, ptr %index.addr, align 4
  store i8 %value, ptr %value.addr, align 1
  %this1 = load ptr, ptr %this.addr, align 8
  %0 = load i32, ptr %index.addr, align 4
  %shr = ashr i32 %0, 1
  store i32 %shr, ptr %slot, align 4
  %1 = load i32, ptr %index.addr, align 4
  %call = call noundef signext i8 @_ZN8facebook5velox6common3hll12_GLOBAL__N_114shiftForBucketEi(i32 noundef %1)
  %conv = sext i8 %call to i32
  %shl = shl i32 15, %conv
  %conv2 = trunc i32 %shl to i8
  store i8 %conv2, ptr %clearMask, align 1
  %2 = load i8, ptr %clearMask, align 1
  %conv3 = sext i8 %2 to i32
  %not = xor i32 %conv3, -1
  %deltas_ = getelementptr inbounds %"class.facebook::velox::common::hll::DenseHll", ptr %this1, i32 0, i32 3
  %3 = load i32, ptr %slot, align 4
  %conv4 = sext i32 %3 to i64
  %call5 = call noundef nonnull align 1 dereferenceable(1) ptr @_ZNSt6vectorIaN8facebook5velox12StlAllocatorIaEEEixEm(ptr noundef nonnull align 8 dereferenceable(32) %deltas_, i64 noundef %conv4) #9
  %4 = load i8, ptr %call5, align 1
  %conv6 = sext i8 %4 to i32
  %and = and i32 %conv6, %not
  %conv7 = trunc i32 %and to i8
  store i8 %conv7, ptr %call5, align 1
  %5 = load i8, ptr %value.addr, align 1
  %conv8 = sext i8 %5 to i32
  %6 = load i32, ptr %index.addr, align 4
  %call9 = call noundef signext i8 @_ZN8facebook5velox6common3hll12_GLOBAL__N_114shiftForBucketEi(i32 noundef %6)
  %conv10 = sext i8 %call9 to i32
  %shl11 = shl i32 %conv8, %conv10
  %conv12 = trunc i32 %shl11 to i8
  store i8 %conv12, ptr %setMask, align 1
  %7 = load i8, ptr %setMask, align 1
  %conv13 = sext i8 %7 to i32
  %deltas_14 = getelementptr inbounds %"class.facebook::velox::common::hll::DenseHll", ptr %this1, i32 0, i32 3
  %8 = load i32, ptr %slot, align 4
  %conv15 = sext i32 %8 to i64
  %call16 = call noundef nonnull align 1 dereferenceable(1) ptr @_ZNSt6vectorIaN8facebook5velox12StlAllocatorIaEEEixEm(ptr noundef nonnull align 8 dereferenceable(32) %deltas_14, i64 noundef %conv15) #9
  %9 = load i8, ptr %call16, align 1
  %conv17 = sext i8 %9 to i32
  %or = or i32 %conv17, %conv13
  %conv18 = trunc i32 %or to i8
  store i8 %conv18, ptr %call16, align 1
  ret void
}