; Function Attrs: mustprogress nofree norecurse nosync nounwind willreturn memory(readwrite, inaccessiblemem: none) uwtable
define void @_ZN8facebook5velox6common3hll8DenseHll8setDeltaEia(ptr noundef nonnull readonly align 8 captures(none) dereferenceable(112) %this, i32 noundef %index, i8 noundef signext %value) local_unnamed_addr #4 align 2 {
entry:
  %shr = ashr i32 %index, 1
  %index.tr.i = trunc i32 %index to i8
  %0 = shl i8 %index.tr.i, 2
  %1 = and i8 %0, 4
  %conv.i = xor i8 %1, 4
  %shl = shl nuw i8 15, %conv.i
  %2 = xor i8 %shl, -1
  %conv4 = sext i32 %shr to i64
  %add.ptr.i = getelementptr inbounds nuw i8, ptr %this, i64 16
  %3 = load ptr, ptr %add.ptr.i, align 8
  %add.ptr2.i = getelementptr inbounds i8, ptr %3, i64 %conv4
  %4 = load i8, ptr %add.ptr2.i, align 1
  %and4 = and i8 %4, %2
  store i8 %and4, ptr %add.ptr2.i, align 1
  %shl11 = shl i8 %value, %conv.i
  %5 = load ptr, ptr %add.ptr.i, align 8
  %add.ptr2.i9 = getelementptr inbounds i8, ptr %5, i64 %conv4
  %6 = load i8, ptr %add.ptr2.i9, align 1
  %or5 = or i8 %6, %shl11
  store i8 %or5, ptr %add.ptr2.i9, align 1
  ret void
}